target datalayout = "e-m:e-p270:32:32-p271:32:32-p272:64:64-i64:64-i128:128-f80:128-n8:16:32:64-S128"
target triple = "x86_64-pc-linux-gnu"

%struct.s_p_hashtbl = type { %struct.re_pattern_buffer, [173 x ptr] }
%struct.re_pattern_buffer = type { ptr, i64, i64, i64, ptr, ptr, i64, i8 }
%struct.s_p_values = type { ptr, i32, i32, i32, ptr, ptr, ptr, ptr }
%struct.conf_file_options = type { ptr, i32, ptr, ptr, ptr, ptr, ptr }

@.str.31 = private unnamed_addr constant [29 x i8] c"%s: unsupported pack type %d\00", align 1
@__func__.s_p_pack_hashtbl = private unnamed_addr constant [17 x i8] c"s_p_pack_hashtbl\00", align 1

; Function Attrs: nounwind uwtable
define internal i32 @_conf_hashtbl_index(ptr noundef %0) #0 {
  %2 = alloca ptr, align 8
  %3 = alloca i32, align 4
  %4 = alloca i32, align 4
  %5 = alloca i32, align 4
  store ptr %0, ptr %2, align 8
  call void @llvm.lifetime.start.p0(i64 4, ptr %3) #9
  store i32 0, ptr %3, align 4
  br label %6

6:                                                ; preds = %25, %1
  %7 = load ptr, ptr %2, align 8
  %8 = load i8, ptr %7, align 1
  %9 = sext i8 %8 to i32
  %10 = icmp ne i32 %9, 0
  br i1 %10, label %11, label %28

11:                                               ; preds = %6
  call void @llvm.lifetime.start.p0(i64 4, ptr %4) #9
  %12 = call ptr @__ctype_tolower_loc() #10
  %13 = load ptr, ptr %12, align 8
  %14 = load ptr, ptr %2, align 8
  %15 = load i8, ptr %14, align 1
  %16 = sext i8 %15 to i32
  %17 = sext i32 %16 to i64
  %18 = getelementptr inbounds i32, ptr %13, i64 %17
  %19 = load i32, ptr %18, align 4
  store i32 %19, ptr %4, align 4
  %20 = load i32, ptr %4, align 4
  store i32 %20, ptr %5, align 4
  call void @llvm.lifetime.end.p0(i64 4, ptr %4) #9
  %21 = load i32, ptr %5, align 4
  %22 = load i32, ptr %3, align 4
  %23 = mul i32 31, %22
  %24 = add i32 %21, %23
  store i32 %24, ptr %3, align 4
  br label %25

25:                                               ; preds = %11
  %26 = load ptr, ptr %2, align 8
  %27 = getelementptr inbounds nuw i8, ptr %26, i32 1
  store ptr %27, ptr %2, align 8
  br label %6, !llvm.loop !56

28:                                               ; preds = %6
  %29 = load i32, ptr %3, align 4
  %30 = urem i32 %29, 173
  call void @llvm.lifetime.end.p0(i64 4, ptr %3) #9
  ret i32 %30
}

; Function Attrs: nounwind uwtable
define internal ptr @_conf_hashtbl_lookup(ptr noundef %0, ptr noundef %1) #0 {
  %3 = alloca ptr, align 8
  %4 = alloca ptr, align 8
  %5 = alloca ptr, align 8
  %6 = alloca i32, align 4
  %7 = alloca ptr, align 8
  %8 = alloca i32, align 4
  store ptr %0, ptr %4, align 8
  store ptr %1, ptr %5, align 8
  call void @llvm.lifetime.start.p0(i64 4, ptr %6) #9
  call void @llvm.lifetime.start.p0(i64 8, ptr %7) #9
  %9 = load ptr, ptr %4, align 8
  %10 = icmp ne ptr %9, null
  br i1 %10, label %12, label %11

11:                                               ; preds = %2
  store ptr null, ptr %3, align 8
  store i32 1, ptr %8, align 4
  br label %39

12:                                               ; preds = %2
  %13 = load ptr, ptr %5, align 8
  %14 = call i32 @_conf_hashtbl_index(ptr noundef %13)
  store i32 %14, ptr %6, align 4
  %15 = load ptr, ptr %4, align 8
  %16 = getelementptr inbounds nuw %struct.s_p_hashtbl, ptr %15, i32 0, i32 1
  %17 = load i32, ptr %6, align 4
  %18 = sext i32 %17 to i64
  %19 = getelementptr inbounds [173 x ptr], ptr %16, i64 0, i64 %18
  %20 = load ptr, ptr %19, align 8
  store ptr %20, ptr %7, align 8
  br label %21

21:                                               ; preds = %34, %12
  %22 = load ptr, ptr %7, align 8
  %23 = icmp ne ptr %22, null
  br i1 %23, label %24, label %38

24:                                               ; preds = %21
  %25 = load ptr, ptr %7, align 8
  %26 = getelementptr inbounds nuw %struct.s_p_values, ptr %25, i32 0, i32 0
  %27 = load ptr, ptr %26, align 8
  %28 = load ptr, ptr %5, align 8
  %29 = call i32 @xstrcasecmp(ptr noundef %27, ptr noundef %28)
  %30 = icmp eq i32 %29, 0
  br i1 %30, label %31, label %33

31:                                               ; preds = %24
  %32 = load ptr, ptr %7, align 8
  store ptr %32, ptr %3, align 8
  store i32 1, ptr %8, align 4
  br label %39

33:                                               ; preds = %24
  br label %34

34:                                               ; preds = %33
  %35 = load ptr, ptr %7, align 8
  %36 = getelementptr inbounds nuw %struct.s_p_values, ptr %35, i32 0, i32 7
  %37 = load ptr, ptr %36, align 8
  store ptr %37, ptr %7, align 8
  br label %21, !llvm.loop !27

38:                                               ; preds = %21
  store ptr null, ptr %3, align 8
  store i32 1, ptr %8, align 4
  br label %39

39:                                               ; preds = %38, %31, %11
  call void @llvm.lifetime.end.p0(i64 8, ptr %7) #9
  call void @llvm.lifetime.end.p0(i64 4, ptr %6) #9
  %40 = load ptr, ptr %3, align 8
  ret ptr %40
}

; Function Attrs: nounwind uwtable
define dso_local ptr @s_p_pack_hashtbl(ptr noundef %0, ptr noundef %1, i32 noundef %2) #0 {
  %4 = alloca ptr, align 8
  %5 = alloca ptr, align 8
  %6 = alloca i32, align 4
  %7 = alloca ptr, align 8
  %8 = alloca ptr, align 8
  %9 = alloca i32, align 4
  %10 = alloca i32, align 4
  %11 = alloca ptr, align 8
  %12 = alloca i32, align 4
  %13 = alloca i32, align 4
  store ptr %0, ptr %4, align 8
  store ptr %1, ptr %5, align 8
  store i32 %2, ptr %6, align 4
  call void @llvm.lifetime.start.p0(i64 8, ptr %7) #9
  %14 = call ptr @init_buf(i32 noundef 0)
  store ptr %14, ptr %7, align 8
  call void @llvm.lifetime.start.p0(i64 8, ptr %8) #9
  call void @llvm.lifetime.start.p0(i64 4, ptr %9) #9
  %15 = load i32, ptr %6, align 4
  %16 = load ptr, ptr %7, align 8
  call void @pack32(i32 noundef %15, ptr noundef %16)
  store i32 0, ptr %9, align 4
  br label %17

17:                                               ; preds = %201, %3
  %18 = load i32, ptr %9, align 4
  %19 = load i32, ptr %6, align 4
  %20 = icmp ult i32 %18, %19
  br i1 %20, label %21, label %204

21:                                               ; preds = %17
  %22 = load ptr, ptr %4, align 8
  %23 = load ptr, ptr %5, align 8
  %24 = load i32, ptr %9, align 4
  %25 = sext i32 %24 to i64
  %26 = getelementptr inbounds %struct.conf_file_options, ptr %23, i64 %25
  %27 = getelementptr inbounds nuw %struct.conf_file_options, ptr %26, i32 0, i32 0
  %28 = load ptr, ptr %27, align 8
  %29 = call ptr @_conf_hashtbl_lookup(ptr noundef %22, ptr noundef %28)
  store ptr %29, ptr %8, align 8
  %30 = load ptr, ptr %5, align 8
  %31 = load i32, ptr %9, align 4
  %32 = sext i32 %31 to i64
  %33 = getelementptr inbounds %struct.conf_file_options, ptr %30, i64 %32
  %34 = getelementptr inbounds nuw %struct.conf_file_options, ptr %33, i32 0, i32 1
  %35 = load i32, ptr %34, align 8
  %36 = trunc i32 %35 to i16
  %37 = load ptr, ptr %7, align 8
  call void @pack16(i16 noundef zeroext %36, ptr noundef %37)
  br label %38

38:                                               ; preds = %21
  call void @llvm.lifetime.start.p0(i64 4, ptr %10) #9
  store i32 0, ptr %10, align 4
  %39 = load ptr, ptr %5, align 8
  %40 = load i32, ptr %9, align 4
  %41 = sext i32 %40 to i64
  %42 = getelementptr inbounds %struct.conf_file_options, ptr %39, i64 %41
  %43 = getelementptr inbounds nuw %struct.conf_file_options, ptr %42, i32 0, i32 0
  %44 = load ptr, ptr %43, align 8
  %45 = icmp ne ptr %44, null
  br i1 %45, label %46, label %56

46:                                               ; preds = %38
  %47 = load ptr, ptr %5, align 8
  %48 = load i32, ptr %9, align 4
  %49 = sext i32 %48 to i64
  %50 = getelementptr inbounds %struct.conf_file_options, ptr %47, i64 %49
  %51 = getelementptr inbounds nuw %struct.conf_file_options, ptr %50, i32 0, i32 0
  %52 = load ptr, ptr %51, align 8
  %53 = call i64 @strlen(ptr noundef %52) #12
  %54 = trunc i64 %53 to i32
  %55 = add i32 %54, 1
  store i32 %55, ptr %10, align 4
  br label %56

56:                                               ; preds = %46, %38
  %57 = load ptr, ptr %5, align 8
  %58 = load i32, ptr %9, align 4
  %59 = sext i32 %58 to i64
  %60 = getelementptr inbounds %struct.conf_file_options, ptr %57, i64 %59
  %61 = getelementptr inbounds nuw %struct.conf_file_options, ptr %60, i32 0, i32 0
  %62 = load ptr, ptr %61, align 8
  %63 = load i32, ptr %10, align 4
  %64 = load ptr, ptr %7, align 8
  call void @packmem(ptr noundef %62, i32 noundef %63, ptr noundef %64)
  call void @llvm.lifetime.end.p0(i64 4, ptr %10) #9
  br label %65

65:                                               ; preds = %56
  br label %66

66:                                               ; preds = %65
  %67 = load ptr, ptr %8, align 8
  %68 = getelementptr inbounds nuw %struct.s_p_values, ptr %67, i32 0, i32 2
  %69 = load i32, ptr %68, align 4
  %70 = trunc i32 %69 to i16
  %71 = load ptr, ptr %7, align 8
  call void @pack16(i16 noundef zeroext %70, ptr noundef %71)
  %72 = load ptr, ptr %8, align 8
  %73 = getelementptr inbounds nuw %struct.s_p_values, ptr %72, i32 0, i32 3
  %74 = load i32, ptr %73, align 8
  %75 = load ptr, ptr %7, align 8
  call void @pack32(i32 noundef %74, ptr noundef %75)
  %76 = load ptr, ptr %8, align 8
  %77 = getelementptr inbounds nuw %struct.s_p_values, ptr %76, i32 0, i32 3
  %78 = load i32, ptr %77, align 8
  %79 = icmp ne i32 %78, 0
  br i1 %79, label %81, label %80

80:                                               ; preds = %66
  br label %201

81:                                               ; preds = %66
  %82 = load ptr, ptr %5, align 8
  %83 = load i32, ptr %9, align 4
  %84 = sext i32 %83 to i64
  %85 = getelementptr inbounds %struct.conf_file_options, ptr %82, i64 %84
  %86 = getelementptr inbounds nuw %struct.conf_file_options, ptr %85, i32 0, i32 1
  %87 = load i32, ptr %86, align 8
  switch i32 %87, label %193 [
    i32 7, label %88
    i32 1, label %129
    i32 11, label %129
    i32 4, label %150
    i32 2, label %150
    i32 3, label %156
    i32 5, label %162
    i32 8, label %168
    i32 12, label %175
    i32 13, label %181
    i32 14, label %187
    i32 0, label %200
  ]

88:                                               ; preds = %81
  %89 = load ptr, ptr %5, align 8
  %90 = load i32, ptr %9, align 4
  %91 = sext i32 %90 to i64
  %92 = getelementptr inbounds %struct.conf_file_options, ptr %89, i64 %91
  %93 = getelementptr inbounds nuw %struct.conf_file_options, ptr %92, i32 0, i32 5
  %94 = load ptr, ptr %93, align 8
  %95 = icmp ne ptr %94, null
  br i1 %95, label %96, label %128

96:                                               ; preds = %88
  %97 = load ptr, ptr %8, align 8
  %98 = getelementptr inbounds nuw %struct.s_p_values, ptr %97, i32 0, i32 3
  %99 = load i32, ptr %98, align 8
  %100 = load ptr, ptr %7, align 8
  call void @pack32(i32 noundef %99, ptr noundef %100)
  call void @llvm.lifetime.start.p0(i64 8, ptr %11) #9
  %101 = load ptr, ptr %8, align 8
  %102 = getelementptr inbounds nuw %struct.s_p_values, ptr %101, i32 0, i32 4
  %103 = load ptr, ptr %102, align 8
  store ptr %103, ptr %11, align 8
  call void @llvm.lifetime.start.p0(i64 4, ptr %12) #9
  store i32 0, ptr %12, align 4
  br label %104

104:                                              ; preds = %124, %96
  %105 = load i32, ptr %12, align 4
  %106 = load ptr, ptr %8, align 8
  %107 = getelementptr inbounds nuw %struct.s_p_values, ptr %106, i32 0, i32 3
  %108 = load i32, ptr %107, align 8
  %109 = icmp slt i32 %105, %108
  br i1 %109, label %111, label %110

110:                                              ; preds = %104
  call void @llvm.lifetime.end.p0(i64 4, ptr %12) #9
  br label %127

111:                                              ; preds = %104
  %112 = load ptr, ptr %5, align 8
  %113 = load i32, ptr %9, align 4
  %114 = sext i32 %113 to i64
  %115 = getelementptr inbounds %struct.conf_file_options, ptr %112, i64 %114
  %116 = getelementptr inbounds nuw %struct.conf_file_options, ptr %115, i32 0, i32 5
  %117 = load ptr, ptr %116, align 8
  %118 = load ptr, ptr %11, align 8
  %119 = load i32, ptr %12, align 4
  %120 = sext i32 %119 to i64
  %121 = getelementptr inbounds ptr, ptr %118, i64 %120
  %122 = load ptr, ptr %121, align 8
  %123 = load ptr, ptr %7, align 8
  call void %117(ptr noundef %122, ptr noundef %123)
  br label %124

124:                                              ; preds = %111
  %125 = load i32, ptr %12, align 4
  %126 = add nsw i32 %125, 1
  store i32 %126, ptr %12, align 4
  br label %104, !llvm.loop !52

127:                                              ; preds = %110
  call void @llvm.lifetime.end.p0(i64 8, ptr %11) #9
  br label %128

128:                                              ; preds = %127, %88
  br label %200

129:                                              ; preds = %81, %81
  br label %130

130:                                              ; preds = %129
  call void @llvm.lifetime.start.p0(i64 4, ptr %13) #9
  store i32 0, ptr %13, align 4
  %131 = load ptr, ptr %8, align 8
  %132 = getelementptr inbounds nuw %struct.s_p_values, ptr %131, i32 0, i32 4
  %133 = load ptr, ptr %132, align 8
  %134 = icmp ne ptr %133, null
  br i1 %134, label %135, label %142

135:                                              ; preds = %130
  %136 = load ptr, ptr %8, align 8
  %137 = getelementptr inbounds nuw %struct.s_p_values, ptr %136, i32 0, i32 4
  %138 = load ptr, ptr %137, align 8
  %139 = call i64 @strlen(ptr noundef %138) #12
  %140 = trunc i64 %139 to i32
  %141 = add i32 %140, 1
  store i32 %141, ptr %13, align 4
  br label %142

142:                                              ; preds = %135, %130
  %143 = load ptr, ptr %8, align 8
  %144 = getelementptr inbounds nuw %struct.s_p_values, ptr %143, i32 0, i32 4
  %145 = load ptr, ptr %144, align 8
  %146 = load i32, ptr %13, align 4
  %147 = load ptr, ptr %7, align 8
  call void @packmem(ptr noundef %145, i32 noundef %146, ptr noundef %147)
  call void @llvm.lifetime.end.p0(i64 4, ptr %13) #9
  br label %148

148:                                              ; preds = %142
  br label %149

149:                                              ; preds = %148
  br label %200

150:                                              ; preds = %81, %81
  %151 = load ptr, ptr %8, align 8
  %152 = getelementptr inbounds nuw %struct.s_p_values, ptr %151, i32 0, i32 4
  %153 = load ptr, ptr %152, align 8
  %154 = load i32, ptr %153, align 4
  %155 = load ptr, ptr %7, align 8
  call void @pack32(i32 noundef %154, ptr noundef %155)
  br label %200

156:                                              ; preds = %81
  %157 = load ptr, ptr %8, align 8
  %158 = getelementptr inbounds nuw %struct.s_p_values, ptr %157, i32 0, i32 4
  %159 = load ptr, ptr %158, align 8
  %160 = load i16, ptr %159, align 2
  %161 = load ptr, ptr %7, align 8
  call void @pack16(i16 noundef zeroext %160, ptr noundef %161)
  br label %200

162:                                              ; preds = %81
  %163 = load ptr, ptr %8, align 8
  %164 = getelementptr inbounds nuw %struct.s_p_values, ptr %163, i32 0, i32 4
  %165 = load ptr, ptr %164, align 8
  %166 = load i64, ptr %165, align 8
  %167 = load ptr, ptr %7, align 8
  call void @pack64(i64 noundef %166, ptr noundef %167)
  br label %200

168:                                              ; preds = %81
  %169 = load ptr, ptr %8, align 8
  %170 = getelementptr inbounds nuw %struct.s_p_values, ptr %169, i32 0, i32 4
  %171 = load ptr, ptr %170, align 8
  %172 = load i8, ptr %171, align 1, !range !13, !noundef !14
  %173 = trunc i8 %172 to i1
  %174 = load ptr, ptr %7, align 8
  call void @packbool(i1 noundef zeroext %173, ptr noundef %174)
  br label %200

175:                                              ; preds = %81
  %176 = load ptr, ptr %8, align 8
  %177 = getelementptr inbounds nuw %struct.s_p_values, ptr %176, i32 0, i32 4
  %178 = load ptr, ptr %177, align 8
  %179 = load float, ptr %178, align 4
  %180 = load ptr, ptr %7, align 8
  call void @packfloat(float noundef %179, ptr noundef %180)
  br label %200

181:                                              ; preds = %81
  %182 = load ptr, ptr %8, align 8
  %183 = getelementptr inbounds nuw %struct.s_p_values, ptr %182, i32 0, i32 4
  %184 = load ptr, ptr %183, align 8
  %185 = load double, ptr %184, align 8
  %186 = load ptr, ptr %7, align 8
  call void @packdouble(double noundef %185, ptr noundef %186)
  br label %200

187:                                              ; preds = %81
  %188 = load ptr, ptr %8, align 8
  %189 = getelementptr inbounds nuw %struct.s_p_values, ptr %188, i32 0, i32 4
  %190 = load ptr, ptr %189, align 8
  %191 = load x86_fp80, ptr %190, align 16
  %192 = load ptr, ptr %7, align 8
  call void @packlongdouble(x86_fp80 noundef %191, ptr noundef %192)
  br label %200

193:                                              ; preds = %81
  %194 = load ptr, ptr %5, align 8
  %195 = load i32, ptr %9, align 4
  %196 = sext i32 %195 to i64
  %197 = getelementptr inbounds %struct.conf_file_options, ptr %194, i64 %196
  %198 = getelementptr inbounds nuw %struct.conf_file_options, ptr %197, i32 0, i32 1
  %199 = load i32, ptr %198, align 8
  call void (ptr, ...) @fatal(ptr noundef @.str.31, ptr noundef @__func__.s_p_pack_hashtbl, i32 noundef %199) #11
  unreachable

200:                                              ; preds = %81, %187, %181, %175, %168, %162, %156, %150, %149, %128
  br label %201

201:                                              ; preds = %200, %80
  %202 = load i32, ptr %9, align 4
  %203 = add nsw i32 %202, 1
  store i32 %203, ptr %9, align 4
  br label %17, !llvm.loop !53

204:                                              ; preds = %17
  %205 = load ptr, ptr %7, align 8
  call void @llvm.lifetime.end.p0(i64 4, ptr %9) #9
  call void @llvm.lifetime.end.p0(i64 8, ptr %8) #9
  call void @llvm.lifetime.end.p0(i64 8, ptr %7) #9
  ret ptr %205
}