; Function Attrs: nounwind uwtable
define dso_local noundef ptr @s_p_pack_hashtbl(ptr noundef readonly captures(address_is_null) %0, ptr noundef readonly captures(none) %1, i32 noundef %2) local_unnamed_addr #0 {
  %4 = tail call ptr @init_buf(i32 noundef 0) #13
  tail call void @pack32(i32 noundef %2, ptr noundef %4) #13
  %.not73 = icmp eq i32 %2, 0
  br i1 %.not73, label %._crit_edge, label %.lr.ph72

.lr.ph72:                                         ; preds = %3
  %.not.i = icmp eq ptr %0, null
  %5 = getelementptr inbounds nuw i8, ptr %0, i64 64
  %wide.trip.count = zext i32 %2 to i64
  br label %6

6:                                                ; preds = %.lr.ph72, %.loopexit
  %indvars.iv76 = phi i64 [ 0, %.lr.ph72 ], [ %indvars.iv.next77, %.loopexit ]
  %7 = getelementptr inbounds nuw %struct.conf_file_options, ptr %1, i64 %indvars.iv76
  %8 = load ptr, ptr %7, align 8
  br i1 %.not.i, label %_conf_hashtbl_lookup.exit, label %9

9:                                                ; preds = %6
  %10 = load i8, ptr %8, align 1
  %.not8.i.i = icmp eq i8 %10, 0
  br i1 %.not8.i.i, label %_conf_hashtbl_index.exit.i, label %.lr.ph.i.i

.lr.ph.i.i:                                       ; preds = %9
  %11 = tail call ptr @__ctype_tolower_loc() #15
  %12 = load ptr, ptr %11, align 8
  br label %13

13:                                               ; preds = %13, %.lr.ph.i.i
  %14 = phi i8 [ %10, %.lr.ph.i.i ], [ %21, %13 ]
  %.010.i.i = phi ptr [ %8, %.lr.ph.i.i ], [ %20, %13 ]
  %.069.i.i = phi i32 [ 0, %.lr.ph.i.i ], [ %19, %13 ]
  %15 = sext i8 %14 to i64
  %16 = getelementptr inbounds i32, ptr %12, i64 %15
  %17 = load i32, ptr %16, align 4
  %18 = mul i32 %.069.i.i, 31
  %19 = add i32 %17, %18
  %20 = getelementptr inbounds nuw i8, ptr %.010.i.i, i64 1
  %21 = load i8, ptr %20, align 1
  %.not.i.i = icmp eq i8 %21, 0
  br i1 %.not.i.i, label %._crit_edge.loopexit.i.i, label %13, !llvm.loop !28

._crit_edge.loopexit.i.i:                         ; preds = %13
  %22 = urem i32 %19, 173
  %23 = zext nneg i32 %22 to i64
  br label %_conf_hashtbl_index.exit.i

_conf_hashtbl_index.exit.i:                       ; preds = %._crit_edge.loopexit.i.i, %9
  %.06.lcssa.i.i = phi i64 [ 0, %9 ], [ %23, %._crit_edge.loopexit.i.i ]
  %24 = getelementptr inbounds nuw [173 x ptr], ptr %5, i64 0, i64 %.06.lcssa.i.i
  %.012.i = load ptr, ptr %24, align 8
  %.not1113.i = icmp eq ptr %.012.i, null
  br i1 %.not1113.i, label %_conf_hashtbl_lookup.exit, label %.lr.ph.i

.lr.ph.i:                                         ; preds = %_conf_hashtbl_index.exit.i, %28
  %.014.i = phi ptr [ %.0.i, %28 ], [ %.012.i, %_conf_hashtbl_index.exit.i ]
  %25 = load ptr, ptr %.014.i, align 8
  %26 = tail call i32 @xstrcasecmp(ptr noundef %25, ptr noundef nonnull %8) #13
  %27 = icmp eq i32 %26, 0
  br i1 %27, label %_conf_hashtbl_lookup.exit, label %28

28:                                               ; preds = %.lr.ph.i
  %29 = getelementptr inbounds nuw i8, ptr %.014.i, i64 48
  %.0.i = load ptr, ptr %29, align 8
  %.not11.i = icmp eq ptr %.0.i, null
  br i1 %.not11.i, label %_conf_hashtbl_lookup.exit, label %.lr.ph.i, !llvm.loop !29

_conf_hashtbl_lookup.exit:                        ; preds = %.lr.ph.i, %28, %6, %_conf_hashtbl_index.exit.i
  %.09.i = phi ptr [ null, %6 ], [ null, %_conf_hashtbl_index.exit.i ], [ null, %28 ], [ %.014.i, %.lr.ph.i ]
  %30 = getelementptr inbounds nuw i8, ptr %7, i64 8
  %31 = load i32, ptr %30, align 8
  %32 = trunc i32 %31 to i16
  tail call void @pack16(i16 noundef zeroext %32, ptr noundef %4) #13
  %33 = load ptr, ptr %7, align 8
  %.not = icmp eq ptr %33, null
  br i1 %.not, label %38, label %34

34:                                               ; preds = %_conf_hashtbl_lookup.exit
  %35 = tail call i64 @strlen(ptr noundef nonnull dereferenceable(1) %33) #14
  %36 = trunc i64 %35 to i32
  %37 = add i32 %36, 1
  br label %38

38:                                               ; preds = %34, %_conf_hashtbl_lookup.exit
  %.062 = phi i32 [ %37, %34 ], [ 0, %_conf_hashtbl_lookup.exit ]
  tail call void @packmem(ptr noundef %33, i32 noundef %.062, ptr noundef %4) #13
  %39 = getelementptr inbounds nuw i8, ptr %.09.i, i64 12
  %40 = load i32, ptr %39, align 4
  %41 = trunc i32 %40 to i16
  tail call void @pack16(i16 noundef zeroext %41, ptr noundef %4) #13
  %42 = getelementptr inbounds nuw i8, ptr %.09.i, i64 16
  %43 = load i32, ptr %42, align 8
  tail call void @pack32(i32 noundef %43, ptr noundef %4) #13
  %44 = load i32, ptr %42, align 8
  %.not66 = icmp eq i32 %44, 0
  br i1 %.not66, label %.loopexit, label %45

45:                                               ; preds = %38
  %46 = load i32, ptr %30, align 8
  switch i32 %46, label %98 [
    i32 7, label %47
    i32 1, label %61
    i32 11, label %61
    i32 4, label %69
    i32 2, label %69
    i32 3, label %73
    i32 5, label %77
    i32 8, label %81
    i32 12, label %86
    i32 13, label %90
    i32 14, label %94
    i32 0, label %.loopexit
  ]

47:                                               ; preds = %45
  %48 = getelementptr inbounds nuw i8, ptr %7, i64 40
  %49 = load ptr, ptr %48, align 8
  %.not68 = icmp eq ptr %49, null
  br i1 %.not68, label %.loopexit, label %50

50:                                               ; preds = %47
  tail call void @pack32(i32 noundef %44, ptr noundef %4) #13
  %51 = getelementptr inbounds nuw i8, ptr %.09.i, i64 24
  %52 = load ptr, ptr %51, align 8
  %53 = load i32, ptr %42, align 8
  %54 = icmp sgt i32 %53, 0
  br i1 %54, label %.lr.ph, label %.loopexit

.lr.ph:                                           ; preds = %50, %.lr.ph
  %indvars.iv = phi i64 [ %indvars.iv.next, %.lr.ph ], [ 0, %50 ]
  %55 = load ptr, ptr %48, align 8
  %56 = getelementptr inbounds nuw ptr, ptr %52, i64 %indvars.iv
  %57 = load ptr, ptr %56, align 8
  tail call void %55(ptr noundef %57, ptr noundef %4) #13
  %indvars.iv.next = add nuw nsw i64 %indvars.iv, 1
  %58 = load i32, ptr %42, align 8
  %59 = sext i32 %58 to i64
  %60 = icmp slt i64 %indvars.iv.next, %59
  br i1 %60, label %.lr.ph, label %.loopexit, !llvm.loop !60

61:                                               ; preds = %45, %45
  %62 = getelementptr inbounds nuw i8, ptr %.09.i, i64 24
  %63 = load ptr, ptr %62, align 8
  %.not67 = icmp eq ptr %63, null
  br i1 %.not67, label %68, label %64

64:                                               ; preds = %61
  %65 = tail call i64 @strlen(ptr noundef nonnull dereferenceable(1) %63) #14
  %66 = trunc i64 %65 to i32
  %67 = add i32 %66, 1
  br label %68

68:                                               ; preds = %64, %61
  %.0 = phi i32 [ %67, %64 ], [ 0, %61 ]
  tail call void @packmem(ptr noundef %63, i32 noundef %.0, ptr noundef %4) #13
  br label %.loopexit

69:                                               ; preds = %45, %45
  %70 = getelementptr inbounds nuw i8, ptr %.09.i, i64 24
  %71 = load ptr, ptr %70, align 8
  %72 = load i32, ptr %71, align 4
  tail call void @pack32(i32 noundef %72, ptr noundef %4) #13
  br label %.loopexit

73:                                               ; preds = %45
  %74 = getelementptr inbounds nuw i8, ptr %.09.i, i64 24
  %75 = load ptr, ptr %74, align 8
  %76 = load i16, ptr %75, align 2
  tail call void @pack16(i16 noundef zeroext %76, ptr noundef %4) #13
  br label %.loopexit

77:                                               ; preds = %45
  %78 = getelementptr inbounds nuw i8, ptr %.09.i, i64 24
  %79 = load ptr, ptr %78, align 8
  %80 = load i64, ptr %79, align 8
  tail call void @pack64(i64 noundef %80, ptr noundef %4) #13
  br label %.loopexit

81:                                               ; preds = %45
  %82 = getelementptr inbounds nuw i8, ptr %.09.i, i64 24
  %83 = load ptr, ptr %82, align 8
  %84 = load i8, ptr %83, align 1, !range !33, !noundef !34
  %85 = trunc nuw i8 %84 to i1
  tail call void @packbool(i1 noundef zeroext %85, ptr noundef %4) #13
  br label %.loopexit

86:                                               ; preds = %45
  %87 = getelementptr inbounds nuw i8, ptr %.09.i, i64 24
  %88 = load ptr, ptr %87, align 8
  %89 = load float, ptr %88, align 4
  tail call void @packfloat(float noundef %89, ptr noundef %4) #13
  br label %.loopexit

90:                                               ; preds = %45
  %91 = getelementptr inbounds nuw i8, ptr %.09.i, i64 24
  %92 = load ptr, ptr %91, align 8
  %93 = load double, ptr %92, align 8
  tail call void @packdouble(double noundef %93, ptr noundef %4) #13
  br label %.loopexit

94:                                               ; preds = %45
  %95 = getelementptr inbounds nuw i8, ptr %.09.i, i64 24
  %96 = load ptr, ptr %95, align 8
  %97 = load x86_fp80, ptr %96, align 16
  tail call void @packlongdouble(x86_fp80 noundef %97, ptr noundef %4) #13
  br label %.loopexit

98:                                               ; preds = %45
  tail call void (ptr, ...) @fatal(ptr noundef nonnull @.str.31, ptr noundef nonnull @__func__.s_p_pack_hashtbl, i32 noundef %46) #16
  unreachable

.loopexit:                                        ; preds = %.lr.ph, %50, %45, %68, %69, %73, %77, %81, %86, %90, %94, %47, %38
  %indvars.iv.next77 = add nuw nsw i64 %indvars.iv76, 1
  %exitcond.not = icmp eq i64 %indvars.iv.next77, %wide.trip.count
  br i1 %exitcond.not, label %._crit_edge, label %6, !llvm.loop !61

._crit_edge:                                      ; preds = %.loopexit, %3
  ret ptr %4
}